Certificate:
    Data:
        Version: 1 (0x0)
        Serial Number: 4101 (0x1005)
    Signature Algorithm: sha256WithRSAEncryption
        Issuer: C=AU, ST=Some-State, O=Internet Widgits Pty Ltd, CN=mongrel2
        Validity
            Not Before: Mar 26 09:20:58 2015 GMT
            Not After : Mar 25 09:20:58 2025 GMT
        Subject: C=AU, ST=Some-State, O=Internet Widgits Pty Ltd, CN=m2
        Subject Public Key Info:
            Public Key Algorithm: rsaEncryption
                Public-Key: (4096 bit)
                Modulus:
                    00:e0:5b:42:a8:e3:fe:91:55:15:2e:d0:48:c3:48:
                    e2:e8:c8:a1:9b:69:81:e2:08:15:9d:cc:69:ea:d8:
                    56:ab:7c:e5:db:ed:56:85:c5:2a:93:3e:67:e2:6f:
                    ad:00:38:61:20:d3:b4:9d:dc:6c:72:30:87:25:99:
                    9d:24:c3:ee:27:71:44:d2:a0:d9:9e:78:cd:f0:8c:
                    de:8a:73:8f:77:c7:41:e9:e6:d7:af:f5:91:c6:0b:
                    6d:58:7b:4b:d2:bc:82:d4:da:60:63:4b:c4:6d:e9:
                    9c:a0:38:42:64:ca:d2:4a:10:fc:cd:1d:35:f2:68:
                    0e:df:b8:20:1d:a0:97:57:61:4b:52:1a:6f:e2:a2:
                    0c:45:27:d6:14:9d:43:4a:7f:bf:a2:d0:96:b7:26:
                    88:d3:df:30:5c:b6:7e:60:ad:dd:9b:a2:14:e2:12:
                    bc:82:e8:6a:8b:f1:fc:a7:c1:e3:0a:d9:ae:15:0f:
                    d7:b2:cd:fa:ad:2b:8d:e3:7b:fe:e3:51:e7:07:d6:
                    d4:8a:26:fb:6b:61:97:0f:47:34:1d:50:c6:62:98:
                    e9:a3:aa:3d:ef:6b:fd:62:c1:90:33:59:42:2f:f6:
                    74:c5:5f:93:b6:7b:42:8f:66:62:6c:fb:d7:ea:72:
                    2a:aa:46:da:a3:a9:a2:b4:e8:ee:37:ff:4b:2a:c5:
                    cb:82:23:f6:48:8e:b1:fd:8f:fe:16:f8:c5:e0:c5:
                    97:df:80:ed:46:f3:1f:49:6c:ac:20:78:40:a7:c8:
                    e7:d5:b6:55:92:19:1a:ac:2f:21:fe:e0:3f:a6:69:
                    34:fd:17:26:b1:72:9a:b8:fb:7d:ab:8f:5b:ac:5a:
                    a7:ed:58:7c:e6:a8:1d:51:eb:a1:f2:e2:34:e0:df:
                    f2:7a:0a:3f:d3:12:2e:1a:3c:be:00:d6:25:6c:1c:
                    56:39:9a:af:ea:24:f1:09:9f:56:30:cf:80:93:20:
                    c0:cc:34:1e:81:13:6a:06:55:b1:a1:6c:f0:a2:6c:
                    01:99:83:c6:39:ff:2f:ea:e1:b2:af:44:e4:79:1e:
                    d0:e2:34:1b:6d:7c:ae:66:8f:55:37:63:3c:05:1b:
                    f2:9b:7c:61:09:19:dd:21:42:15:52:8a:a2:7c:80:
                    7e:e6:cb:37:98:8a:f5:86:28:23:35:d9:00:3d:03:
                    c9:59:f1:19:e5:60:9b:30:02:d4:3b:4e:c3:d5:48:
                    81:41:80:b1:cd:46:32:89:c9:37:49:03:3d:00:e1:
                    0b:30:83:fb:8a:1a:28:1e:4a:1a:a8:1a:e7:72:1b:
                    0e:8a:c0:2a:b6:fa:19:c2:9d:87:58:9d:1f:e8:e5:
                    62:5a:8b:fb:f2:5f:87:c5:10:79:ff:6a:81:1d:a6:
                    7b:22:11
                Exponent: 65537 (0x10001)
    Signature Algorithm: sha256WithRSAEncryption
         2b:db:c0:b4:78:a4:ca:d9:10:72:4f:28:c0:df:c0:7b:c5:c6:
         29:6e:32:d6:5b:f7:c3:85:3e:89:7d:d8:08:42:eb:e8:df:f0:
         1d:b9:18:79:9f:cd:aa:56:d5:8f:3d:27:e7:4c:fd:cd:74:e2:
         8a:08:8a:d6:e4:a8:94:55:f1:0f:91:f9:a0:cb:5e:5c:c4:15:
         35:d8:35:ef:fb:99:ed:bf:da:cb:26:31:73:1c:97:d3:7a:94:
         7c:fd:9a:fe:47:68:25:e0:39:68:97:bd:5c:cf:e3:4f:88:d3:
         52:92:6b:18:60:5d:80:f4:0a:95:2a:f9:46:ba:8d:2b:11:7d:
         34:02:76:e6:ea:6a:d8:cf:62:f3:c6:26:c6:5e:2c:73:65:f2:
         9b:35:10:0e:fe:d6:bf:42:af:eb:ae:a4:51:aa:25:ec:55:9b:
         ab:b4:62:6d:51:8e:53:4f:8f:69:3d:d0:b0:16:6c:7c:16:6a:
         08:35:ff:5c:c9:cd:fc:22:2c:dc:e3:ea:9e:bb:78:28:7b:53:
         2e:0b:3b:3c:c5:3a:5d:94:01:71:d2:0e:d8:69:fb:5c:c6:3d:
         97:63:98:02:2a:0f:8d:bc:39:0c:fa:46:27:ed:5c:97:1e:15:
         49:91:02:76:8d:d3:cb:da:14:63:4c:b4:98:fb:c4:09:a6:58:
         5f:ff:cf:db:bc:bc:5d:88:13:17:1a:9b:fe:dd:54:cd:da:d6:
         13:39:2e:22:5d:e8:50:1a:88:65:ac:6d:4c:05:d7:04:d7:be:
         5d:9c:41:b6:07:6a:62:50:10:8f:74:62:cf:d8:02:60:3b:c5:
         5a:9f:86:cb:a4:87:a2:97:c8:74:e3:d9:f2:89:de:db:ad:e4:
         7e:8b:6d:e7:a6:bc:48:b2:bd:7c:56:b1:96:80:d0:67:59:64:
         e5:fd:6c:12:47:27:92:86:ea:71:74:dc:c2:d7:d7:bd:71:5d:
         8a:36:e5:d7:99:25:17:9f:8d:2b:9f:9e:94:29:5b:d6:96:6c:
         9a:74:74:32:83:87:8b:47:2b:4c:b1:ba:b7:5f:5c:85:b5:2e:
         ed:9a:fe:87:b9:39:f4:92:4b:91:f3:23:8b:76:5d:48:53:b4:
         67:f3:63:83:52:db:4b:ac:22:ee:e3:35:50:ed:df:ae:f5:50:
         95:66:4f:93:51:df:9a:cd:a2:7c:da:b1:8f:c3:ec:d1:03:46:
         a2:42:63:02:58:a6:cc:8d:51:38:03:a1:ee:20:d6:0f:37:ba:
         a0:e9:08:30:66:19:e3:2f:4c:96:b1:ff:b2:35:85:09:99:05:
         2f:db:cb:f2:a5:71:2c:cd:eb:c2:2b:b9:17:ba:64:95:1d:58:
         9b:a1:c7:1c:3c:a4:4e:1f
-----BEGIN CERTIFICATE-----
MIIFHzCCAwcCAhAFMA0GCSqGSIb3DQEBCwUAMFgxCzAJBgNVBAYTAkFVMRMwEQYD
VQQIDApTb21lLVN0YXRlMSEwHwYDVQQKDBhJbnRlcm5ldCBXaWRnaXRzIFB0eSBM
dGQxETAPBgNVBAMMCG1vbmdyZWwyMB4XDTE1MDMyNjA5MjA1OFoXDTI1MDMyNTA5
MjA1OFowUjELMAkGA1UEBhMCQVUxEzARBgNVBAgMClNvbWUtU3RhdGUxITAfBgNV
BAoMGEludGVybmV0IFdpZGdpdHMgUHR5IEx0ZDELMAkGA1UEAwwCbTIwggIiMA0G
CSqGSIb3DQEBAQUAA4ICDwAwggIKAoICAQDgW0Ko4/6RVRUu0EjDSOLoyKGbaYHi
CBWdzGnq2FarfOXb7VaFxSqTPmfib60AOGEg07Sd3GxyMIclmZ0kw+4ncUTSoNme
eM3wjN6Kc493x0Hp5tev9ZHGC21Ye0vSvILU2mBjS8Rt6ZygOEJkytJKEPzNHTXy
aA7fuCAdoJdXYUtSGm/iogxFJ9YUnUNKf7+i0Ja3JojT3zBctn5grd2bohTiEryC
6GqL8fynweMK2a4VD9eyzfqtK43je/7jUecH1tSKJvtrYZcPRzQdUMZimOmjqj3v
a/1iwZAzWUIv9nTFX5O2e0KPZmJs+9fqciqqRtqjqaK06O43/0sqxcuCI/ZIjrH9
j/4W+MXgxZffgO1G8x9JbKwgeECnyOfVtlWSGRqsLyH+4D+maTT9Fyaxcpq4+32r
j1usWqftWHzmqB1R66Hy4jTg3/J6Cj/TEi4aPL4A1iVsHFY5mq/qJPEJn1Ywz4CT
IMDMNB6BE2oGVbGhbPCibAGZg8Y5/y/q4bKvROR5HtDiNBttfK5mj1U3YzwFG/Kb
fGEJGd0hQhVSiqJ8gH7myzeYivWGKCM12QA9A8lZ8RnlYJswAtQ7TsPVSIFBgLHN
RjKJyTdJAz0A4Qswg/uKGigeShqoGudyGw6KwCq2+hnCnYdYnR/o5WJai/vyX4fF
EHn/aoEdpnsiEQIDAQABMA0GCSqGSIb3DQEBCwUAA4ICAQAr28C0eKTK2RByTyjA
38B7xcYpbjLWW/fDhT6JfdgIQuvo3/AduRh5n82qVtWPPSfnTP3NdOKKCIrW5KiU
VfEPkfmgy15cxBU12DXv+5ntv9rLJjFzHJfTepR8/Zr+R2gl4Dlol71cz+NPiNNS
kmsYYF2A9AqVKvlGuo0rEX00Anbm6mrYz2LzxibGXixzZfKbNRAO/ta/Qq/rrqRR
qiXsVZurtGJtUY5TT49pPdCwFmx8FmoINf9cyc38Iizc4+qeu3goe1MuCzs8xTpd
lAFx0g7Yaftcxj2XY5gCKg+NvDkM+kYn7VyXHhVJkQJ2jdPL2hRjTLSY+8QJplhf
/8/bvLxdiBMXGpv+3VTN2tYTOS4iXehQGohlrG1MBdcE175dnEG2B2piUBCPdGLP
2AJgO8Van4bLpIeil8h049nyid7breR+i23nprxIsr18VrGWgNBnWWTl/WwSRyeS
hupxdNzC19e9cV2KNuXXmSUXn40rn56UKVvWlmyadHQyg4eLRytMsbq3X1yFtS7t
mv6HuTn0kkuR8yOLdl1IU7Rn82ODUttLrCLu4zVQ7d+u9VCVZk+TUd+azaJ82rGP
w+zRA0aiQmMCWKbMjVE4A6HuINYPN7qg6QgwZhnjL0yWsf+yNYUJmQUv28vypXEs
zevCK7kXumSVHVibocccPKROHw==
-----END CERTIFICATE-----
